target datalayout = "e-m:e-p270:32:32-p271:32:32-p272:64:64-i64:64-i128:128-f80:128-n8:16:32:64-S128"
target triple = "x86_64-pc-linux-gnu"

%struct.switch_record_t = type { i32, i32, ptr, ptr, ptr, i16, i16, i16, ptr, ptr, ptr, ptr }

@switch_record_cnt = external global i32, align 4
@switch_record_table = external global ptr, align 8

; Function Attrs: nounwind uwtable
define dso_local i32 @topology_p_whole_topo(ptr noundef %0) #0 {
  %2 = alloca ptr, align 8
  %3 = alloca i32, align 4
  store ptr %0, ptr %2, align 8
  call void @llvm.lifetime.start.p0(i64 4, ptr %3) #10
  store i32 0, ptr %3, align 4
  br label %4

4:                                                ; preds = %37, %1
  %5 = load i32, ptr %3, align 4
  %6 = load i32, ptr @switch_record_cnt, align 4
  %7 = icmp slt i32 %5, %6
  br i1 %7, label %9, label %8

8:                                                ; preds = %4
  call void @llvm.lifetime.end.p0(i64 4, ptr %3) #10
  br label %40

9:                                                ; preds = %4
  %10 = load ptr, ptr @switch_record_table, align 8
  %11 = load i32, ptr %3, align 4
  %12 = sext i32 %11 to i64
  %13 = getelementptr inbounds %struct.switch_record_t, ptr %10, i64 %12
  %14 = getelementptr inbounds nuw %struct.switch_record_t, ptr %13, i32 0, i32 3
  %15 = load ptr, ptr %14, align 8
  %16 = load ptr, ptr %2, align 8
  %17 = call i32 @slurm_bit_overlap_any(ptr noundef %15, ptr noundef %16)
  %18 = icmp ne i32 %17, 0
  br i1 %18, label %19, label %36

19:                                               ; preds = %9
  %20 = load ptr, ptr @switch_record_table, align 8
  %21 = load i32, ptr %3, align 4
  %22 = sext i32 %21 to i64
  %23 = getelementptr inbounds %struct.switch_record_t, ptr %20, i64 %22
  %24 = getelementptr inbounds nuw %struct.switch_record_t, ptr %23, i32 0, i32 0
  %25 = load i32, ptr %24, align 8
  %26 = icmp ne i32 %25, 0
  br i1 %26, label %27, label %28

27:                                               ; preds = %19
  br label %37

28:                                               ; preds = %19
  %29 = load ptr, ptr %2, align 8
  %30 = load ptr, ptr @switch_record_table, align 8
  %31 = load i32, ptr %3, align 4
  %32 = sext i32 %31 to i64
  %33 = getelementptr inbounds %struct.switch_record_t, ptr %30, i64 %32
  %34 = getelementptr inbounds nuw %struct.switch_record_t, ptr %33, i32 0, i32 3
  %35 = load ptr, ptr %34, align 8
  call void @slurm_bit_or(ptr noundef %29, ptr noundef %35)
  br label %36

36:                                               ; preds = %28, %9
  br label %37

37:                                               ; preds = %36, %27
  %38 = load i32, ptr %3, align 4
  %39 = add nsw i32 %38, 1
  store i32 %39, ptr %3, align 4
  br label %4, !llvm.loop !8

40:                                               ; preds = %8
  ret i32 0
}