; Function Attrs: nounwind uwtable
define dso_local noundef i32 @topology_p_whole_topo(ptr noundef %0) local_unnamed_addr #0 {
  %2 = load i32, ptr @switch_record_cnt, align 4
  %3 = icmp sgt i32 %2, 0
  br i1 %3, label %.lr.ph, label %._crit_edge

._crit_edge:                                      ; preds = %15, %1
  ret i32 0

.lr.ph:                                           ; preds = %1, %15
  %indvars.iv = phi i64 [ %indvars.iv.next, %15 ], [ 0, %1 ]
  %4 = load ptr, ptr @switch_record_table, align 8
  %5 = getelementptr inbounds nuw %struct.switch_record_t, ptr %4, i64 %indvars.iv, i32 3
  %6 = load ptr, ptr %5, align 8
  %7 = tail call i32 @slurm_bit_overlap_any(ptr noundef %6, ptr noundef %0) #13
  %.not = icmp eq i32 %7, 0
  br i1 %.not, label %15, label %8

8:                                                ; preds = %.lr.ph
  %9 = load ptr, ptr @switch_record_table, align 8
  %10 = getelementptr inbounds nuw %struct.switch_record_t, ptr %9, i64 %indvars.iv
  %11 = load i32, ptr %10, align 8
  %.not6 = icmp eq i32 %11, 0
  br i1 %.not6, label %12, label %15

12:                                               ; preds = %8
  %13 = getelementptr inbounds nuw i8, ptr %10, i64 16
  %14 = load ptr, ptr %13, align 8
  tail call void @slurm_bit_or(ptr noundef %0, ptr noundef %14) #13
  br label %15

15:                                               ; preds = %.lr.ph, %12, %8
  %indvars.iv.next = add nuw nsw i64 %indvars.iv, 1
  %16 = load i32, ptr @switch_record_cnt, align 4
  %17 = sext i32 %16 to i64
  %18 = icmp slt i64 %indvars.iv.next, %17
  br i1 %18, label %.lr.ph, label %._crit_edge, !llvm.loop !8
}